; Function Attrs: mustprogress uwtable
define void @_ZN6duckdb22GeoParquetFileMetadata15FlushColumnMetaERKNSt7__cxx1112basic_stringIcSt11char_traitsIcESaIcEEERKNS_24GeoParquetColumnMetadataE(ptr noundef nonnull align 8 dereferenceable(160) %0, ptr noundef nonnull align 8 dereferenceable(32) %1, ptr noundef nonnull align 8 dereferenceable(120) %2) local_unnamed_addr #3 align 2 personality ptr @__gxx_personality_v0 {
  %4 = tail call noundef i32 @pthread_mutex_lock(ptr noundef nonnull align 8 dereferenceable(40) %0) #25
  %.not.i.i = icmp eq i32 %4, 0
  br i1 %.not.i.i, label %_ZNSt10lock_guardISt5mutexEC2ERS0_.exit, label %5

5:                                                ; preds = %3
  tail call void @_ZSt20__throw_system_errori(i32 noundef %4) #26
  unreachable

_ZNSt10lock_guardISt5mutexEC2ERS0_.exit:          ; preds = %3
  %6 = getelementptr inbounds nuw i8, ptr %0, i64 104
  %7 = invoke noundef nonnull align 8 dereferenceable(120) ptr @_ZNSt8__detail9_Map_baseINSt7__cxx1112basic_stringIcSt11char_traitsIcESaIcEEESt4pairIKS6_N6duckdb24GeoParquetColumnMetadataEESaISB_ENS_10_Select1stESt8equal_toIS6_ESt4hashIS6_ENS_18_Mod_range_hashingENS_20_Default_ranged_hashENS_20_Prime_rehash_policyENS_17_Hashtable_traitsILb1ELb0ELb1EEELb1EEixERS8_(ptr noundef nonnull align 8 dereferenceable(56) %6, ptr noundef nonnull align 8 dereferenceable(32) %1)
          to label %_ZNSt13unordered_mapINSt7__cxx1112basic_stringIcSt11char_traitsIcESaIcEEEN6duckdb24GeoParquetColumnMetadataESt4hashIS5_ESt8equal_toIS5_ESaISt4pairIKS5_S7_EEEixERSD_.exit unwind label %38

_ZNSt13unordered_mapINSt7__cxx1112basic_stringIcSt11char_traitsIcESaIcEEEN6duckdb24GeoParquetColumnMetadataESt4hashIS5_ESt8equal_toIS5_ESaISt4pairIKS5_S7_EEEixERSD_.exit: ; preds = %_ZNSt10lock_guardISt5mutexEC2ERS0_.exit
  %8 = getelementptr inbounds nuw i8, ptr %7, i64 8
  %9 = getelementptr inbounds nuw i8, ptr %2, i64 32
  %10 = load ptr, ptr %9, align 8, !tbaa !141
  %11 = getelementptr inbounds nuw i8, ptr %2, i64 16
  invoke void @_ZNSt3setIN6duckdb15WKBGeometryTypeESt4lessIS1_ESaIS1_EE6insertISt23_Rb_tree_const_iteratorIS1_EEEvT_S9_(ptr noundef nonnull align 8 dereferenceable(48) %8, ptr %10, ptr nonnull %11)
          to label %12 unwind label %38

12:                                               ; preds = %_ZNSt13unordered_mapINSt7__cxx1112basic_stringIcSt11char_traitsIcESaIcEEEN6duckdb24GeoParquetColumnMetadataESt4hashIS5_ESt8equal_toIS5_ESaISt4pairIKS5_S7_EEEixERSD_.exit
  %13 = getelementptr inbounds nuw i8, ptr %7, i64 56
  %14 = getelementptr inbounds nuw i8, ptr %2, i64 56
  %15 = load double, ptr %14, align 8, !tbaa !146
  %16 = load double, ptr %13, align 8, !tbaa !146
  %17 = fcmp olt double %15, %16
  %18 = select i1 %17, double %15, double %16
  store double %18, ptr %13, align 8, !tbaa !148
  %19 = getelementptr inbounds nuw i8, ptr %7, i64 64
  %20 = getelementptr inbounds nuw i8, ptr %2, i64 64
  %21 = load double, ptr %19, align 8, !tbaa !146
  %22 = load double, ptr %20, align 8, !tbaa !146
  %23 = fcmp olt double %21, %22
  %24 = select i1 %23, double %22, double %21
  store double %24, ptr %19, align 8, !tbaa !150
  %25 = getelementptr inbounds nuw i8, ptr %7, i64 72
  %26 = getelementptr inbounds nuw i8, ptr %2, i64 72
  %27 = load double, ptr %26, align 8, !tbaa !146
  %28 = load double, ptr %25, align 8, !tbaa !146
  %29 = fcmp olt double %27, %28
  %30 = select i1 %29, double %27, double %28
  store double %30, ptr %25, align 8, !tbaa !151
  %31 = getelementptr inbounds nuw i8, ptr %7, i64 80
  %32 = getelementptr inbounds nuw i8, ptr %2, i64 80
  %33 = load double, ptr %31, align 8, !tbaa !146
  %34 = load double, ptr %32, align 8, !tbaa !146
  %35 = fcmp olt double %33, %34
  %36 = select i1 %35, double %34, double %33
  store double %36, ptr %31, align 8, !tbaa !152
  %37 = tail call noundef i32 @pthread_mutex_unlock(ptr noundef nonnull align 8 dereferenceable(40) %0) #25
  ret void

38:                                               ; preds = %_ZNSt10lock_guardISt5mutexEC2ERS0_.exit, %_ZNSt13unordered_mapINSt7__cxx1112basic_stringIcSt11char_traitsIcESaIcEEEN6duckdb24GeoParquetColumnMetadataESt4hashIS5_ESt8equal_toIS5_ESaISt4pairIKS5_S7_EEEixERSD_.exit
  %39 = landingpad { ptr, i32 }
          cleanup
  %40 = tail call noundef i32 @pthread_mutex_unlock(ptr noundef nonnull align 8 dereferenceable(40) %0) #25
  resume { ptr, i32 } %39
}